target datalayout = "e-m:e-p270:32:32-p271:32:32-p272:64:64-i64:64-i128:128-f80:128-n8:16:32:64-S128"
target triple = "x86_64-pc-linux-gnu"

%struct.bz_stream = type { ptr, i32, i32, i32, ptr, i32, i32, i32, ptr, ptr, ptr, ptr }
%struct.bzFile = type { ptr, [5000 x i8], i32, i8, %struct.bz_stream, i32, i8 }

@bzerrorstrings = internal global [16 x ptr] [ptr @.str.10, ptr @.str.11, ptr @.str.12, ptr @.str.13, ptr @.str.14, ptr @.str.15, ptr @.str.16, ptr @.str.17, ptr @.str.18, ptr @.str.19, ptr @.str.20, ptr @.str.20, ptr @.str.20, ptr @.str.20, ptr @.str.20, ptr @.str.20], align 16

; Function Attrs: nounwind uwtable
define ptr @BZ2_bzerror(ptr noundef %0, ptr noundef %1) #0 {
  %3 = alloca ptr, align 8
  %4 = alloca ptr, align 8
  %5 = alloca i32, align 4
  store ptr %0, ptr %3, align 8
  store ptr %1, ptr %4, align 8
  %6 = load ptr, ptr %3, align 8
  %7 = getelementptr inbounds %struct.bzFile, ptr %6, i32 0, i32 5
  %8 = load i32, ptr %7, align 8
  store i32 %8, ptr %5, align 4
  %9 = load i32, ptr %5, align 4
  %10 = icmp sgt i32 %9, 0
  br i1 %10, label %11, label %12

11:                                               ; preds = %2
  store i32 0, ptr %5, align 4
  br label %12

12:                                               ; preds = %11, %2
  %13 = load i32, ptr %5, align 4
  %14 = load ptr, ptr %4, align 8
  store i32 %13, ptr %14, align 4
  %15 = load i32, ptr %5, align 4
  %16 = mul nsw i32 %15, -1
  %17 = sext i32 %16 to i64
  %18 = getelementptr inbounds [16 x ptr], ptr @bzerrorstrings, i64 0, i64 %17
  %19 = load ptr, ptr %18, align 8
  ret ptr %19
}