; Function Attrs: mustprogress nofree norecurse nosync nounwind willreturn memory(argmem: readwrite) uwtable
define ptr @BZ2_bzerror(ptr noundef readonly captures(none) %0, ptr noundef writeonly captures(none) initializes((0, 4)) %1) local_unnamed_addr #12 {
  %3 = getelementptr inbounds nuw i8, ptr %0, i64 5096
  %4 = load i32, ptr %3, align 8
  %spec.store.select = tail call i32 @llvm.smin.i32(i32 %4, i32 0)
  store i32 %spec.store.select, ptr %1, align 4
  %5 = sub nsw i32 0, %spec.store.select
  %6 = zext nneg i32 %5 to i64
  %7 = getelementptr inbounds nuw [16 x ptr], ptr @bzerrorstrings, i64 0, i64 %6
  %8 = load ptr, ptr %7, align 8
  ret ptr %8
}